target datalayout = "e-m:e-p270:32:32-p271:32:32-p272:64:64-i64:64-i128:128-f80:128-n8:16:32:64-S128"
target triple = "x86_64-pc-linux-gnu"

%struct.rb_execarg = type { %union.anon.13, i64, i64, i64, i64, i16, ptr, ptr, i32, i64, i32, i32, i32, i32, i64, i64, i64, i64, i64, i64, i64 }
%union.anon.13 = type { %struct.anon.15 }
%struct.anon.15 = type { i64, i64, i64, i64 }

@.str.14 = private unnamed_addr constant [6 x i8] c"chdir\00", align 1

; Function Attrs: nounwind sspstrong uwtable
define internal void @rb_exec_fail(ptr noundef %0, i32 noundef %1, ptr noundef %2) #0 {
  %4 = alloca ptr, align 8
  %5 = alloca i32, align 4
  %6 = alloca ptr, align 8
  %7 = alloca i32, align 4
  %8 = alloca i32, align 4
  store ptr %0, ptr %4, align 8, !tbaa !68
  store i32 %1, ptr %5, align 4, !tbaa !34
  store ptr %2, ptr %6, align 8, !tbaa !64
  %9 = load ptr, ptr %6, align 8, !tbaa !64
  %10 = icmp ne ptr %9, null
  br i1 %10, label %11, label %15

11:                                               ; preds = %3
  %12 = load ptr, ptr %6, align 8, !tbaa !64
  %13 = load i8, ptr %12, align 1, !tbaa !66
  %14 = icmp ne i8 %13, 0
  br i1 %14, label %16, label %15

15:                                               ; preds = %11, %3
  br label %35

16:                                               ; preds = %11
  %17 = load ptr, ptr %6, align 8, !tbaa !64
  %18 = call i32 @strcmp(ptr noundef %17, ptr noundef @.str.14) #29
  %19 = icmp eq i32 %18, 0
  br i1 %19, label %20, label %29

20:                                               ; preds = %16
  br label %21

21:                                               ; preds = %20
  call void @llvm.lifetime.start.p0(i64 4, ptr %7) #27
  %22 = call ptr @rb_errno_ptr()
  %23 = load i32, ptr %22, align 4, !tbaa !34
  store i32 %23, ptr %7, align 4, !tbaa !34
  %24 = load i32, ptr %7, align 4, !tbaa !34
  %25 = load ptr, ptr %4, align 8, !tbaa !68
  %26 = getelementptr inbounds nuw %struct.rb_execarg, ptr %25, i32 0, i32 20
  %27 = load i64, ptr %26, align 8, !tbaa !76
  call void @rb_syserr_fail_str(i32 noundef %24, i64 noundef %27) #30
  unreachable

28:                                               ; No predecessors!
  br label %29

29:                                               ; preds = %28, %16
  br label %30

30:                                               ; preds = %29
  call void @llvm.lifetime.start.p0(i64 4, ptr %8) #27
  %31 = call ptr @rb_errno_ptr()
  %32 = load i32, ptr %31, align 4, !tbaa !34
  store i32 %32, ptr %8, align 4, !tbaa !34
  %33 = load i32, ptr %8, align 4, !tbaa !34
  %34 = load ptr, ptr %6, align 8, !tbaa !64
  call void @rb_syserr_fail(i32 noundef %33, ptr noundef %34) #30
  unreachable

35:                                               ; preds = %15
  ret void
}