; Function Attrs: nounwind sspstrong uwtable
define internal fastcc void @rb_exec_fail(ptr noundef readonly captures(none) %0, ptr noundef nonnull %1) unnamed_addr #1 {
  %3 = load i8, ptr %1, align 1, !tbaa !67
  %.not = icmp eq i8 %3, 0
  br i1 %.not, label %13, label %4

4:                                                ; preds = %2
  %5 = tail call i32 @strcmp(ptr noundef nonnull dereferenceable(1) %1, ptr noundef nonnull dereferenceable(6) @.str.14) #28
  %6 = icmp eq i32 %5, 0
  %7 = tail call ptr @rb_errno_ptr() #27
  %8 = load i32, ptr %7, align 4, !tbaa !60
  br i1 %6, label %9, label %12

9:                                                ; preds = %4
  %10 = getelementptr inbounds nuw i8, ptr %0, i64 168
  %11 = load i64, ptr %10, align 8, !tbaa !84
  tail call void @rb_syserr_fail_str(i32 noundef %8, i64 noundef %11) #29
  unreachable

12:                                               ; preds = %4
  tail call void @rb_syserr_fail(i32 noundef %8, ptr noundef nonnull %1) #29
  unreachable

13:                                               ; preds = %2
  ret void
}